; Function Attrs: mustprogress uwtable
define dso_local noundef zeroext i1 @_ZN4absl18debugging_internal25RemoveAllSymbolDecoratorsEv() local_unnamed_addr #0 personality ptr @__gxx_personality_v0 {
  %1 = load atomic i32, ptr @_ZN4absl18debugging_internal12_GLOBAL__N_115g_decorators_muE monotonic, align 4
  %2 = and i32 %1, 1
  %.not.i.i.i = icmp eq i32 %2, 0
  br i1 %.not.i.i.i, label %_ZN4absl13base_internal8SpinLock7TryLockEv.exit, label %_ZN4absl13base_internal8SpinLock6UnlockEv.exit

_ZN4absl13base_internal8SpinLock7TryLockEv.exit:  ; preds = %0
  %3 = or disjoint i32 %1, 1
  %4 = cmpxchg ptr @_ZN4absl18debugging_internal12_GLOBAL__N_115g_decorators_muE, i32 %1, i32 %3 acquire monotonic, align 4
  %5 = extractvalue { i32, i1 } %4, 0
  %.pre.i.i = and i32 %5, 1
  %6 = icmp eq i32 %.pre.i.i, 0
  br i1 %6, label %7, label %_ZN4absl13base_internal8SpinLock6UnlockEv.exit

7:                                                ; preds = %_ZN4absl13base_internal8SpinLock7TryLockEv.exit
  store i32 0, ptr @_ZN4absl18debugging_internal12_GLOBAL__N_116g_num_decoratorsE, align 4, !tbaa !10
  %8 = load atomic i32, ptr @_ZN4absl18debugging_internal12_GLOBAL__N_115g_decorators_muE monotonic, align 4
  %9 = and i32 %8, 2
  %10 = atomicrmw xchg ptr @_ZN4absl18debugging_internal12_GLOBAL__N_115g_decorators_muE, i32 %9 release, align 4
  %.not4.i = icmp ult i32 %10, 8
  br i1 %.not4.i, label %_ZN4absl13base_internal8SpinLock6UnlockEv.exit, label %11

11:                                               ; preds = %7
  tail call void @_ZN4absl13base_internal8SpinLock10SlowUnlockEj(ptr noundef nonnull align 4 dereferenceable(4) @_ZN4absl18debugging_internal12_GLOBAL__N_115g_decorators_muE, i32 noundef %10) #28
  br label %_ZN4absl13base_internal8SpinLock6UnlockEv.exit

_ZN4absl13base_internal8SpinLock6UnlockEv.exit:   ; preds = %0, %11, %7, %_ZN4absl13base_internal8SpinLock7TryLockEv.exit
  %.pre-phi.i.i2 = phi i1 [ false, %_ZN4absl13base_internal8SpinLock7TryLockEv.exit ], [ true, %7 ], [ true, %11 ], [ false, %0 ]
  ret i1 %.pre-phi.i.i2
}